; Function Attrs: mustprogress uwtable
define void @_ZN2cv4UMat3eyeEiiiNS_14UMatUsageFlagsE(ptr dead_on_unwind noalias nonnull writable sret(%"class.cv::UMat") align 8 %0, i32 noundef %1, i32 noundef %2, i32 noundef %3, i32 noundef %4) local_unnamed_addr #1 align 2 personality ptr @__gxx_personality_v0 {
  %6 = alloca %"class.cv::_InputOutputArray", align 8
  %7 = alloca %"class.cv::Scalar_", align 8
  %.sroa.2.0.insert.ext = zext i32 %1 to i64
  %.sroa.2.0.insert.shift = shl nuw i64 %.sroa.2.0.insert.ext, 32
  %.sroa.0.0.insert.ext = zext i32 %2 to i64
  %.sroa.0.0.insert.insert = or disjoint i64 %.sroa.2.0.insert.shift, %.sroa.0.0.insert.ext
  tail call void @_ZN2cv4UMatC1ENS_5Size_IiEEiNS_14UMatUsageFlagsE(ptr noundef nonnull align 8 dereferenceable(80) %0, i64 %.sroa.0.0.insert.insert, i32 noundef %3, i32 noundef %4)
  call void @llvm.lifetime.start.p0(i64 24, ptr nonnull %6) #17, !noalias !84
  %8 = getelementptr inbounds nuw i8, ptr %6, i64 8
  %9 = getelementptr inbounds nuw i8, ptr %6, i64 16
  store i64 0, ptr %9, align 8, !noalias !84
  store i32 50987008, ptr %6, align 8, !tbaa !46, !noalias !84
  store ptr %0, ptr %8, align 8, !tbaa !35, !noalias !84
  call void @llvm.lifetime.start.p0(i64 32, ptr nonnull %7) #17, !noalias !84
  store double 1.000000e+00, ptr %7, align 8, !tbaa !77, !noalias !84
  %10 = getelementptr inbounds nuw i8, ptr %7, i64 8
  call void @llvm.memset.p0.i64(ptr noundef nonnull align 8 dereferenceable(24) %10, i8 0, i64 24, i1 false), !noalias !84
  invoke void @_ZN2cv11setIdentityERKNS_17_InputOutputArrayERKNS_7Scalar_IdEE(ptr noundef nonnull align 8 dereferenceable(24) %6, ptr noundef nonnull align 8 dereferenceable(32) %7)
          to label %_ZN2cv4UMat3eyeENS_5Size_IiEEiNS_14UMatUsageFlagsE.exit unwind label %11

11:                                               ; preds = %5
  %12 = landingpad { ptr, i32 }
          cleanup
  call void @llvm.lifetime.end.p0(i64 32, ptr nonnull %7) #17, !noalias !84
  call void @llvm.lifetime.end.p0(i64 24, ptr nonnull %6) #17, !noalias !84
  call void @_ZN2cv4UMatD1Ev(ptr noundef nonnull align 8 dereferenceable(80) %0) #17
  resume { ptr, i32 } %12

_ZN2cv4UMat3eyeENS_5Size_IiEEiNS_14UMatUsageFlagsE.exit: ; preds = %5
  call void @llvm.lifetime.end.p0(i64 32, ptr nonnull %7) #17, !noalias !84
  call void @llvm.lifetime.end.p0(i64 24, ptr nonnull %6) #17, !noalias !84
  ret void
}